; Function Attrs: nounwind uwtable
define internal ptr @kdf_pbkdf1_dup(ptr noundef %0) #0 {
  %2 = load ptr, ptr %0, align 8, !tbaa !3
  %3 = tail call i32 @ossl_prov_is_running() #6
  %.not.i = icmp eq i32 %3, 0
  br i1 %.not.i, label %kdf_pbkdf1_new.exit.thread, label %4

4:                                                ; preds = %1
  %5 = tail call noalias ptr @CRYPTO_zalloc(i64 noundef 72, ptr noundef nonnull @.str, i32 noundef 104) #6
  %6 = icmp eq ptr %5, null
  br i1 %6, label %kdf_pbkdf1_new.exit.thread, label %7

7:                                                ; preds = %4
  store ptr %2, ptr %5, align 8, !tbaa !3
  %8 = getelementptr inbounds nuw i8, ptr %0, i64 48
  %9 = load ptr, ptr %8, align 8, !tbaa !13
  %10 = getelementptr inbounds nuw i8, ptr %0, i64 56
  %11 = load i64, ptr %10, align 8, !tbaa !14
  %12 = getelementptr inbounds nuw i8, ptr %5, i64 48
  %13 = getelementptr inbounds nuw i8, ptr %5, i64 56
  %14 = tail call i32 @ossl_prov_memdup(ptr noundef %9, i64 noundef %11, ptr noundef nonnull %12, ptr noundef nonnull %13) #6
  %.not19 = icmp eq i32 %14, 0
  br i1 %.not19, label %kdf_pbkdf1_free.exit, label %15

15:                                               ; preds = %7
  %16 = getelementptr inbounds nuw i8, ptr %0, i64 32
  %17 = load ptr, ptr %16, align 8, !tbaa !15
  %18 = getelementptr inbounds nuw i8, ptr %0, i64 40
  %19 = load i64, ptr %18, align 8, !tbaa !16
  %20 = getelementptr inbounds nuw i8, ptr %5, i64 32
  %21 = getelementptr inbounds nuw i8, ptr %5, i64 40
  %22 = tail call i32 @ossl_prov_memdup(ptr noundef %17, i64 noundef %19, ptr noundef nonnull %20, ptr noundef nonnull %21) #6
  %.not20 = icmp eq i32 %22, 0
  br i1 %.not20, label %kdf_pbkdf1_free.exit, label %23

23:                                               ; preds = %15
  %24 = getelementptr inbounds nuw i8, ptr %5, i64 8
  %25 = getelementptr inbounds nuw i8, ptr %0, i64 8
  %26 = tail call i32 @ossl_prov_digest_copy(ptr noundef nonnull %24, ptr noundef nonnull %25) #6
  %.not21 = icmp eq i32 %26, 0
  br i1 %.not21, label %kdf_pbkdf1_free.exit, label %27

27:                                               ; preds = %23
  %28 = getelementptr inbounds nuw i8, ptr %0, i64 64
  %29 = load i64, ptr %28, align 8, !tbaa !17
  %30 = getelementptr inbounds nuw i8, ptr %5, i64 64
  store i64 %29, ptr %30, align 8, !tbaa !17
  br label %kdf_pbkdf1_new.exit.thread

kdf_pbkdf1_free.exit:                             ; preds = %7, %15, %23
  %31 = getelementptr inbounds nuw i8, ptr %5, i64 8
  tail call void @ossl_prov_digest_reset(ptr noundef nonnull %31) #6
  %32 = load ptr, ptr %12, align 8, !tbaa !13
  tail call void @CRYPTO_free(ptr noundef %32, ptr noundef nonnull @.str, i32 noundef 114) #6
  %33 = getelementptr inbounds nuw i8, ptr %5, i64 32
  %34 = load ptr, ptr %33, align 8, !tbaa !15
  %35 = getelementptr inbounds nuw i8, ptr %5, i64 40
  %36 = load i64, ptr %35, align 8, !tbaa !16
  tail call void @CRYPTO_clear_free(ptr noundef %34, i64 noundef %36, ptr noundef nonnull @.str, i32 noundef 115) #6
  tail call void @llvm.memset.p0.i64(ptr noundef nonnull align 8 dereferenceable(72) %5, i8 0, i64 72, i1 false)
  tail call void @CRYPTO_free(ptr noundef nonnull %5, ptr noundef nonnull @.str, i32 noundef 125) #6
  br label %kdf_pbkdf1_new.exit.thread

kdf_pbkdf1_new.exit.thread:                       ; preds = %4, %1, %27, %kdf_pbkdf1_free.exit
  %.0 = phi ptr [ null, %kdf_pbkdf1_free.exit ], [ %5, %27 ], [ null, %1 ], [ null, %4 ]
  ret ptr %.0
}